; Function Attrs: null_pointer_is_valid sspstrong uwtable
define internal range(i32 40, 13) i32 @cigi4_add_symbol_circle_textured(ptr noundef %0, ptr readnone captures(none) %1, ptr noundef %2, ptr readnone captures(none) %3) #0 {
  %5 = load i32, ptr @hf_cigi4_symbol_circle_textured_definition_symbol_id, align 4
  %.b91 = load i1, ptr @cigi_byte_order, align 4
  %6 = select i1 %.b91, i32 -2147483648, i32 0
  %7 = tail call ptr @proto_tree_add_item(ptr noundef %2, i32 noundef %5, ptr noundef %0, i32 noundef 0, i32 noundef 2, i32 noundef %6)
  %8 = load i32, ptr @hf_cigi4_symbol_circle_textured_definition_texture_id, align 4
  %.b90 = load i1, ptr @cigi_byte_order, align 4
  %9 = select i1 %.b90, i32 -2147483648, i32 0
  %10 = tail call ptr @proto_tree_add_item(ptr noundef %2, i32 noundef %8, ptr noundef %0, i32 noundef 2, i32 noundef 2, i32 noundef %9)
  %11 = load i32, ptr @hf_cigi4_symbol_circle_textured_definition_filter_mode, align 4
  %.b89 = load i1, ptr @cigi_byte_order, align 4
  %12 = select i1 %.b89, i32 -2147483648, i32 0
  %13 = tail call ptr @proto_tree_add_item(ptr noundef %2, i32 noundef %11, ptr noundef %0, i32 noundef 4, i32 noundef 1, i32 noundef %12)
  %14 = load i32, ptr @hf_cigi4_symbol_circle_textured_definition_wrap, align 4
  %.b88 = load i1, ptr @cigi_byte_order, align 4
  %15 = select i1 %.b88, i32 -2147483648, i32 0
  %16 = tail call ptr @proto_tree_add_item(ptr noundef %2, i32 noundef %14, ptr noundef %0, i32 noundef 4, i32 noundef 1, i32 noundef %15)
  %17 = tail call i32 @tvb_reported_length_remaining(ptr noundef %0, i32 noundef 12)
  %18 = sdiv i32 %17, 40
  %19 = icmp sgt i32 %17, 39
  br i1 %19, label %.lr.ph, label %._crit_edge

.lr.ph:                                           ; preds = %4, %.lr.ph
  %.093 = phi i32 [ %76, %.lr.ph ], [ 12, %4 ]
  %.07792 = phi i32 [ %77, %.lr.ph ], [ 0, %4 ]
  %20 = load i32, ptr @hf_cigi4_symbol_circle_textured_definition_circles, align 4
  %.b87 = load i1, ptr @cigi_byte_order, align 4
  %21 = select i1 %.b87, i32 -2147483648, i32 0
  %22 = tail call ptr @proto_tree_add_item(ptr noundef %2, i32 noundef %20, ptr noundef %0, i32 noundef %.093, i32 noundef 1, i32 noundef %21)
  tail call void (ptr, ptr, ...) @proto_item_append_text(ptr noundef %22, ptr noundef nonnull @.str.2898, i32 noundef %.07792)
  %23 = load i32, ptr @ett_cigi4_symbol_circle_textured_definition_circles, align 4
  %24 = tail call ptr @proto_item_add_subtree(ptr noundef %22, i32 noundef %23)
  %25 = urem i32 %.07792, 9
  %26 = zext nneg i32 %25 to i64
  %27 = getelementptr [9 x i32], ptr @hf_cigi4_symbol_circle_textured_definition_center_u, i64 0, i64 %26
  %28 = load i32, ptr %27, align 4
  %.b86 = load i1, ptr @cigi_byte_order, align 4
  %29 = select i1 %.b86, i32 -2147483648, i32 0
  %30 = tail call ptr @proto_tree_add_item(ptr noundef %24, i32 noundef %28, ptr noundef %0, i32 noundef %.093, i32 noundef 4, i32 noundef %29)
  %31 = add nuw i32 %.093, 4
  %32 = getelementptr [9 x i32], ptr @hf_cigi4_symbol_circle_textured_definition_center_v, i64 0, i64 %26
  %33 = load i32, ptr %32, align 4
  %.b85 = load i1, ptr @cigi_byte_order, align 4
  %34 = select i1 %.b85, i32 -2147483648, i32 0
  %35 = tail call ptr @proto_tree_add_item(ptr noundef %24, i32 noundef %33, ptr noundef %0, i32 noundef %31, i32 noundef 4, i32 noundef %34)
  %36 = add nuw i32 %.093, 8
  %37 = getelementptr [9 x i32], ptr @hf_cigi4_symbol_circle_textured_definition_radius, i64 0, i64 %26
  %38 = load i32, ptr %37, align 4
  %.b84 = load i1, ptr @cigi_byte_order, align 4
  %39 = select i1 %.b84, i32 -2147483648, i32 0
  %40 = tail call ptr @proto_tree_add_item(ptr noundef %24, i32 noundef %38, ptr noundef %0, i32 noundef %36, i32 noundef 4, i32 noundef %39)
  %41 = add nuw i32 %.093, 12
  %42 = getelementptr [9 x i32], ptr @hf_cigi4_symbol_circle_textured_definition_inner_radius, i64 0, i64 %26
  %43 = load i32, ptr %42, align 4
  %.b83 = load i1, ptr @cigi_byte_order, align 4
  %44 = select i1 %.b83, i32 -2147483648, i32 0
  %45 = tail call ptr @proto_tree_add_item(ptr noundef %24, i32 noundef %43, ptr noundef %0, i32 noundef %41, i32 noundef 4, i32 noundef %44)
  %46 = add nuw i32 %.093, 16
  %47 = getelementptr [9 x i32], ptr @hf_cigi4_symbol_circle_textured_definition_start_angle, i64 0, i64 %26
  %48 = load i32, ptr %47, align 4
  %.b82 = load i1, ptr @cigi_byte_order, align 4
  %49 = select i1 %.b82, i32 -2147483648, i32 0
  %50 = tail call ptr @proto_tree_add_item(ptr noundef %24, i32 noundef %48, ptr noundef %0, i32 noundef %46, i32 noundef 4, i32 noundef %49)
  %51 = add nuw i32 %.093, 20
  %52 = getelementptr [9 x i32], ptr @hf_cigi4_symbol_circle_textured_definition_end_angle, i64 0, i64 %26
  %53 = load i32, ptr %52, align 4
  %.b81 = load i1, ptr @cigi_byte_order, align 4
  %54 = select i1 %.b81, i32 -2147483648, i32 0
  %55 = tail call ptr @proto_tree_add_item(ptr noundef %24, i32 noundef %53, ptr noundef %0, i32 noundef %51, i32 noundef 4, i32 noundef %54)
  %56 = add nuw i32 %.093, 24
  %57 = getelementptr [9 x i32], ptr @hf_cigi4_symbol_circle_textured_definition_texture_center_u, i64 0, i64 %26
  %58 = load i32, ptr %57, align 4
  %.b80 = load i1, ptr @cigi_byte_order, align 4
  %59 = select i1 %.b80, i32 -2147483648, i32 0
  %60 = tail call ptr @proto_tree_add_item(ptr noundef %24, i32 noundef %58, ptr noundef %0, i32 noundef %56, i32 noundef 4, i32 noundef %59)
  %61 = add nuw i32 %.093, 28
  %62 = getelementptr [9 x i32], ptr @hf_cigi4_symbol_circle_textured_definition_texture_center_v, i64 0, i64 %26
  %63 = load i32, ptr %62, align 4
  %.b79 = load i1, ptr @cigi_byte_order, align 4
  %64 = select i1 %.b79, i32 -2147483648, i32 0
  %65 = tail call ptr @proto_tree_add_item(ptr noundef %24, i32 noundef %63, ptr noundef %0, i32 noundef %61, i32 noundef 4, i32 noundef %64)
  %66 = add nuw i32 %.093, 32
  %67 = getelementptr [9 x i32], ptr @hf_cigi4_symbol_circle_textured_definition_texture_radius, i64 0, i64 %26
  %68 = load i32, ptr %67, align 4
  %.b78 = load i1, ptr @cigi_byte_order, align 4
  %69 = select i1 %.b78, i32 -2147483648, i32 0
  %70 = tail call ptr @proto_tree_add_item(ptr noundef %24, i32 noundef %68, ptr noundef %0, i32 noundef %66, i32 noundef 4, i32 noundef %69)
  %71 = add nuw i32 %.093, 36
  %72 = getelementptr [9 x i32], ptr @hf_cigi4_symbol_circle_textured_definition_texture_rotation, i64 0, i64 %26
  %73 = load i32, ptr %72, align 4
  %.b = load i1, ptr @cigi_byte_order, align 4
  %74 = select i1 %.b, i32 -2147483648, i32 0
  %75 = tail call ptr @proto_tree_add_item(ptr noundef %24, i32 noundef %73, ptr noundef %0, i32 noundef %71, i32 noundef 4, i32 noundef %74)
  %76 = add nuw i32 %.093, 40
  %77 = add nuw nsw i32 %.07792, 1
  %exitcond.not = icmp eq i32 %77, %18
  br i1 %exitcond.not, label %._crit_edge, label %.lr.ph, !llvm.loop !11

._crit_edge:                                      ; preds = %.lr.ph, %4
  %.0.lcssa = phi i32 [ 12, %4 ], [ %76, %.lr.ph ]
  ret i32 %.0.lcssa
}